target datalayout = "e-m:e-p270:32:32-p271:32:32-p272:64:64-i64:64-i128:128-f80:128-n8:16:32:64-S128"
target triple = "x86_64-pc-linux-gnu"

; Function Attrs: inlinehint nounwind uwtable
define internal ptr @lean_box(i64 noundef %0) #1 {
  %2 = alloca i64, align 8
  store i64 %0, ptr %2, align 8, !tbaa !8
  %3 = load i64, ptr %2, align 8, !tbaa !8
  %4 = shl i64 %3, 1
  %5 = or i64 %4, 1
  %6 = inttoptr i64 %5 to ptr
  ret ptr %6
}

; Function Attrs: inlinehint nounwind uwtable
define internal ptr @lean_usize_to_nat(i64 noundef %0) #1 {
  %2 = alloca ptr, align 8
  %3 = alloca i64, align 8
  store i64 %0, ptr %3, align 8, !tbaa !8
  %4 = load i64, ptr %3, align 8, !tbaa !8
  %5 = icmp ule i64 %4, 9223372036854775807
  %6 = zext i1 %5 to i32
  %7 = sext i32 %6 to i64
  %8 = call i64 @llvm.expect.i64(i64 %7, i64 1)
  %9 = icmp ne i64 %8, 0
  br i1 %9, label %10, label %13

10:                                               ; preds = %1
  %11 = load i64, ptr %3, align 8, !tbaa !8
  %12 = call ptr @lean_box(i64 noundef %11)
  store ptr %12, ptr %2, align 8
  br label %16

13:                                               ; preds = %1
  %14 = load i64, ptr %3, align 8, !tbaa !8
  %15 = call ptr @lean_big_usize_to_nat(i64 noundef %14)
  store ptr %15, ptr %2, align 8
  br label %16

16:                                               ; preds = %13, %10
  %17 = load ptr, ptr %2, align 8
  ret ptr %17
}

; Function Attrs: inlinehint nounwind uwtable
define internal ptr @lean_unsigned_to_nat(i32 noundef %0) #1 {
  %2 = alloca i32, align 4
  store i32 %0, ptr %2, align 4, !tbaa !16
  %3 = load i32, ptr %2, align 4, !tbaa !16
  %4 = zext i32 %3 to i64
  %5 = call ptr @lean_usize_to_nat(i64 noundef %4)
  ret ptr %5
}

; Function Attrs: nounwind uwtable
define ptr @l_Lean_Lsp_CompletionItemKind_toCtorIdx(i8 noundef zeroext %0) #2 {
  %2 = alloca ptr, align 8
  %3 = alloca i8, align 1
  %4 = alloca ptr, align 8
  %5 = alloca ptr, align 8
  %6 = alloca ptr, align 8
  %7 = alloca ptr, align 8
  %8 = alloca ptr, align 8
  %9 = alloca ptr, align 8
  %10 = alloca ptr, align 8
  %11 = alloca ptr, align 8
  %12 = alloca ptr, align 8
  %13 = alloca ptr, align 8
  %14 = alloca ptr, align 8
  %15 = alloca ptr, align 8
  %16 = alloca ptr, align 8
  %17 = alloca ptr, align 8
  %18 = alloca ptr, align 8
  %19 = alloca ptr, align 8
  %20 = alloca ptr, align 8
  %21 = alloca ptr, align 8
  %22 = alloca ptr, align 8
  %23 = alloca ptr, align 8
  %24 = alloca ptr, align 8
  %25 = alloca ptr, align 8
  %26 = alloca ptr, align 8
  %27 = alloca ptr, align 8
  %28 = alloca ptr, align 8
  store i8 %0, ptr %3, align 1, !tbaa !12
  br label %29

29:                                               ; preds = %1
  %30 = load i8, ptr %3, align 1, !tbaa !12
  %31 = zext i8 %30 to i32
  switch i32 %31, label %104 [
    i32 0, label %32
    i32 1, label %35
    i32 2, label %38
    i32 3, label %41
    i32 4, label %44
    i32 5, label %47
    i32 6, label %50
    i32 7, label %53
    i32 8, label %56
    i32 9, label %59
    i32 10, label %62
    i32 11, label %65
    i32 12, label %68
    i32 13, label %71
    i32 14, label %74
    i32 15, label %77
    i32 16, label %80
    i32 17, label %83
    i32 18, label %86
    i32 19, label %89
    i32 20, label %92
    i32 21, label %95
    i32 22, label %98
    i32 23, label %101
  ]

32:                                               ; preds = %29
  call void @llvm.lifetime.start.p0(i64 8, ptr %4) #7
  %33 = call ptr @lean_unsigned_to_nat(i32 noundef 0)
  store ptr %33, ptr %4, align 8, !tbaa !4
  %34 = load ptr, ptr %4, align 8, !tbaa !4
  store ptr %34, ptr %2, align 8
  call void @llvm.lifetime.end.p0(i64 8, ptr %4) #7
  br label %107

35:                                               ; preds = %29
  call void @llvm.lifetime.start.p0(i64 8, ptr %5) #7
  %36 = call ptr @lean_unsigned_to_nat(i32 noundef 1)
  store ptr %36, ptr %5, align 8, !tbaa !4
  %37 = load ptr, ptr %5, align 8, !tbaa !4
  store ptr %37, ptr %2, align 8
  call void @llvm.lifetime.end.p0(i64 8, ptr %5) #7
  br label %107

38:                                               ; preds = %29
  call void @llvm.lifetime.start.p0(i64 8, ptr %6) #7
  %39 = call ptr @lean_unsigned_to_nat(i32 noundef 2)
  store ptr %39, ptr %6, align 8, !tbaa !4
  %40 = load ptr, ptr %6, align 8, !tbaa !4
  store ptr %40, ptr %2, align 8
  call void @llvm.lifetime.end.p0(i64 8, ptr %6) #7
  br label %107

41:                                               ; preds = %29
  call void @llvm.lifetime.start.p0(i64 8, ptr %7) #7
  %42 = call ptr @lean_unsigned_to_nat(i32 noundef 3)
  store ptr %42, ptr %7, align 8, !tbaa !4
  %43 = load ptr, ptr %7, align 8, !tbaa !4
  store ptr %43, ptr %2, align 8
  call void @llvm.lifetime.end.p0(i64 8, ptr %7) #7
  br label %107

44:                                               ; preds = %29
  call void @llvm.lifetime.start.p0(i64 8, ptr %8) #7
  %45 = call ptr @lean_unsigned_to_nat(i32 noundef 4)
  store ptr %45, ptr %8, align 8, !tbaa !4
  %46 = load ptr, ptr %8, align 8, !tbaa !4
  store ptr %46, ptr %2, align 8
  call void @llvm.lifetime.end.p0(i64 8, ptr %8) #7
  br label %107

47:                                               ; preds = %29
  call void @llvm.lifetime.start.p0(i64 8, ptr %9) #7
  %48 = call ptr @lean_unsigned_to_nat(i32 noundef 5)
  store ptr %48, ptr %9, align 8, !tbaa !4
  %49 = load ptr, ptr %9, align 8, !tbaa !4
  store ptr %49, ptr %2, align 8
  call void @llvm.lifetime.end.p0(i64 8, ptr %9) #7
  br label %107

50:                                               ; preds = %29
  call void @llvm.lifetime.start.p0(i64 8, ptr %10) #7
  %51 = call ptr @lean_unsigned_to_nat(i32 noundef 6)
  store ptr %51, ptr %10, align 8, !tbaa !4
  %52 = load ptr, ptr %10, align 8, !tbaa !4
  store ptr %52, ptr %2, align 8
  call void @llvm.lifetime.end.p0(i64 8, ptr %10) #7
  br label %107

53:                                               ; preds = %29
  call void @llvm.lifetime.start.p0(i64 8, ptr %11) #7
  %54 = call ptr @lean_unsigned_to_nat(i32 noundef 7)
  store ptr %54, ptr %11, align 8, !tbaa !4
  %55 = load ptr, ptr %11, align 8, !tbaa !4
  store ptr %55, ptr %2, align 8
  call void @llvm.lifetime.end.p0(i64 8, ptr %11) #7
  br label %107

56:                                               ; preds = %29
  call void @llvm.lifetime.start.p0(i64 8, ptr %12) #7
  %57 = call ptr @lean_unsigned_to_nat(i32 noundef 8)
  store ptr %57, ptr %12, align 8, !tbaa !4
  %58 = load ptr, ptr %12, align 8, !tbaa !4
  store ptr %58, ptr %2, align 8
  call void @llvm.lifetime.end.p0(i64 8, ptr %12) #7
  br label %107

59:                                               ; preds = %29
  call void @llvm.lifetime.start.p0(i64 8, ptr %13) #7
  %60 = call ptr @lean_unsigned_to_nat(i32 noundef 9)
  store ptr %60, ptr %13, align 8, !tbaa !4
  %61 = load ptr, ptr %13, align 8, !tbaa !4
  store ptr %61, ptr %2, align 8
  call void @llvm.lifetime.end.p0(i64 8, ptr %13) #7
  br label %107

62:                                               ; preds = %29
  call void @llvm.lifetime.start.p0(i64 8, ptr %14) #7
  %63 = call ptr @lean_unsigned_to_nat(i32 noundef 10)
  store ptr %63, ptr %14, align 8, !tbaa !4
  %64 = load ptr, ptr %14, align 8, !tbaa !4
  store ptr %64, ptr %2, align 8
  call void @llvm.lifetime.end.p0(i64 8, ptr %14) #7
  br label %107

65:                                               ; preds = %29
  call void @llvm.lifetime.start.p0(i64 8, ptr %15) #7
  %66 = call ptr @lean_unsigned_to_nat(i32 noundef 11)
  store ptr %66, ptr %15, align 8, !tbaa !4
  %67 = load ptr, ptr %15, align 8, !tbaa !4
  store ptr %67, ptr %2, align 8
  call void @llvm.lifetime.end.p0(i64 8, ptr %15) #7
  br label %107

68:                                               ; preds = %29
  call void @llvm.lifetime.start.p0(i64 8, ptr %16) #7
  %69 = call ptr @lean_unsigned_to_nat(i32 noundef 12)
  store ptr %69, ptr %16, align 8, !tbaa !4
  %70 = load ptr, ptr %16, align 8, !tbaa !4
  store ptr %70, ptr %2, align 8
  call void @llvm.lifetime.end.p0(i64 8, ptr %16) #7
  br label %107

71:                                               ; preds = %29
  call void @llvm.lifetime.start.p0(i64 8, ptr %17) #7
  %72 = call ptr @lean_unsigned_to_nat(i32 noundef 13)
  store ptr %72, ptr %17, align 8, !tbaa !4
  %73 = load ptr, ptr %17, align 8, !tbaa !4
  store ptr %73, ptr %2, align 8
  call void @llvm.lifetime.end.p0(i64 8, ptr %17) #7
  br label %107

74:                                               ; preds = %29
  call void @llvm.lifetime.start.p0(i64 8, ptr %18) #7
  %75 = call ptr @lean_unsigned_to_nat(i32 noundef 14)
  store ptr %75, ptr %18, align 8, !tbaa !4
  %76 = load ptr, ptr %18, align 8, !tbaa !4
  store ptr %76, ptr %2, align 8
  call void @llvm.lifetime.end.p0(i64 8, ptr %18) #7
  br label %107

77:                                               ; preds = %29
  call void @llvm.lifetime.start.p0(i64 8, ptr %19) #7
  %78 = call ptr @lean_unsigned_to_nat(i32 noundef 15)
  store ptr %78, ptr %19, align 8, !tbaa !4
  %79 = load ptr, ptr %19, align 8, !tbaa !4
  store ptr %79, ptr %2, align 8
  call void @llvm.lifetime.end.p0(i64 8, ptr %19) #7
  br label %107

80:                                               ; preds = %29
  call void @llvm.lifetime.start.p0(i64 8, ptr %20) #7
  %81 = call ptr @lean_unsigned_to_nat(i32 noundef 16)
  store ptr %81, ptr %20, align 8, !tbaa !4
  %82 = load ptr, ptr %20, align 8, !tbaa !4
  store ptr %82, ptr %2, align 8
  call void @llvm.lifetime.end.p0(i64 8, ptr %20) #7
  br label %107

83:                                               ; preds = %29
  call void @llvm.lifetime.start.p0(i64 8, ptr %21) #7
  %84 = call ptr @lean_unsigned_to_nat(i32 noundef 17)
  store ptr %84, ptr %21, align 8, !tbaa !4
  %85 = load ptr, ptr %21, align 8, !tbaa !4
  store ptr %85, ptr %2, align 8
  call void @llvm.lifetime.end.p0(i64 8, ptr %21) #7
  br label %107

86:                                               ; preds = %29
  call void @llvm.lifetime.start.p0(i64 8, ptr %22) #7
  %87 = call ptr @lean_unsigned_to_nat(i32 noundef 18)
  store ptr %87, ptr %22, align 8, !tbaa !4
  %88 = load ptr, ptr %22, align 8, !tbaa !4
  store ptr %88, ptr %2, align 8
  call void @llvm.lifetime.end.p0(i64 8, ptr %22) #7
  br label %107

89:                                               ; preds = %29
  call void @llvm.lifetime.start.p0(i64 8, ptr %23) #7
  %90 = call ptr @lean_unsigned_to_nat(i32 noundef 19)
  store ptr %90, ptr %23, align 8, !tbaa !4
  %91 = load ptr, ptr %23, align 8, !tbaa !4
  store ptr %91, ptr %2, align 8
  call void @llvm.lifetime.end.p0(i64 8, ptr %23) #7
  br label %107

92:                                               ; preds = %29
  call void @llvm.lifetime.start.p0(i64 8, ptr %24) #7
  %93 = call ptr @lean_unsigned_to_nat(i32 noundef 20)
  store ptr %93, ptr %24, align 8, !tbaa !4
  %94 = load ptr, ptr %24, align 8, !tbaa !4
  store ptr %94, ptr %2, align 8
  call void @llvm.lifetime.end.p0(i64 8, ptr %24) #7
  br label %107

95:                                               ; preds = %29
  call void @llvm.lifetime.start.p0(i64 8, ptr %25) #7
  %96 = call ptr @lean_unsigned_to_nat(i32 noundef 21)
  store ptr %96, ptr %25, align 8, !tbaa !4
  %97 = load ptr, ptr %25, align 8, !tbaa !4
  store ptr %97, ptr %2, align 8
  call void @llvm.lifetime.end.p0(i64 8, ptr %25) #7
  br label %107

98:                                               ; preds = %29
  call void @llvm.lifetime.start.p0(i64 8, ptr %26) #7
  %99 = call ptr @lean_unsigned_to_nat(i32 noundef 22)
  store ptr %99, ptr %26, align 8, !tbaa !4
  %100 = load ptr, ptr %26, align 8, !tbaa !4
  store ptr %100, ptr %2, align 8
  call void @llvm.lifetime.end.p0(i64 8, ptr %26) #7
  br label %107

101:                                              ; preds = %29
  call void @llvm.lifetime.start.p0(i64 8, ptr %27) #7
  %102 = call ptr @lean_unsigned_to_nat(i32 noundef 23)
  store ptr %102, ptr %27, align 8, !tbaa !4
  %103 = load ptr, ptr %27, align 8, !tbaa !4
  store ptr %103, ptr %2, align 8
  call void @llvm.lifetime.end.p0(i64 8, ptr %27) #7
  br label %107

104:                                              ; preds = %29
  call void @llvm.lifetime.start.p0(i64 8, ptr %28) #7
  %105 = call ptr @lean_unsigned_to_nat(i32 noundef 24)
  store ptr %105, ptr %28, align 8, !tbaa !4
  %106 = load ptr, ptr %28, align 8, !tbaa !4
  store ptr %106, ptr %2, align 8
  call void @llvm.lifetime.end.p0(i64 8, ptr %28) #7
  br label %107

107:                                              ; preds = %104, %101, %98, %95, %92, %89, %86, %83, %80, %77, %74, %71, %68, %65, %62, %59, %56, %53, %50, %47, %44, %41, %38, %35, %32
  %108 = load ptr, ptr %2, align 8
  ret ptr %108
}