; Function Attrs: mustprogress nofree norecurse nosync nounwind willreturn memory(none) uwtable
define noundef nonnull ptr @l_Lean_Lsp_CompletionItemKind_toCtorIdx(i8 noundef zeroext %0) local_unnamed_addr #3 {
  switch i8 %0, label %25 [
    i8 0, label %26
    i8 1, label %2
    i8 2, label %3
    i8 3, label %4
    i8 4, label %5
    i8 5, label %6
    i8 6, label %7
    i8 7, label %8
    i8 8, label %9
    i8 9, label %10
    i8 10, label %11
    i8 11, label %12
    i8 12, label %13
    i8 13, label %14
    i8 14, label %15
    i8 15, label %16
    i8 16, label %17
    i8 17, label %18
    i8 18, label %19
    i8 19, label %20
    i8 20, label %21
    i8 21, label %22
    i8 22, label %23
    i8 23, label %24
  ]

2:                                                ; preds = %1
  br label %26

3:                                                ; preds = %1
  br label %26

4:                                                ; preds = %1
  br label %26

5:                                                ; preds = %1
  br label %26

6:                                                ; preds = %1
  br label %26

7:                                                ; preds = %1
  br label %26

8:                                                ; preds = %1
  br label %26

9:                                                ; preds = %1
  br label %26

10:                                               ; preds = %1
  br label %26

11:                                               ; preds = %1
  br label %26

12:                                               ; preds = %1
  br label %26

13:                                               ; preds = %1
  br label %26

14:                                               ; preds = %1
  br label %26

15:                                               ; preds = %1
  br label %26

16:                                               ; preds = %1
  br label %26

17:                                               ; preds = %1
  br label %26

18:                                               ; preds = %1
  br label %26

19:                                               ; preds = %1
  br label %26

20:                                               ; preds = %1
  br label %26

21:                                               ; preds = %1
  br label %26

22:                                               ; preds = %1
  br label %26

23:                                               ; preds = %1
  br label %26

24:                                               ; preds = %1
  br label %26

25:                                               ; preds = %1
  br label %26

26:                                               ; preds = %1, %25, %24, %23, %22, %21, %20, %19, %18, %17, %16, %15, %14, %13, %12, %11, %10, %9, %8, %7, %6, %5, %4, %3, %2
  %.0 = phi ptr [ inttoptr (i64 49 to ptr), %25 ], [ inttoptr (i64 47 to ptr), %24 ], [ inttoptr (i64 45 to ptr), %23 ], [ inttoptr (i64 43 to ptr), %22 ], [ inttoptr (i64 41 to ptr), %21 ], [ inttoptr (i64 39 to ptr), %20 ], [ inttoptr (i64 37 to ptr), %19 ], [ inttoptr (i64 35 to ptr), %18 ], [ inttoptr (i64 33 to ptr), %17 ], [ inttoptr (i64 31 to ptr), %16 ], [ inttoptr (i64 29 to ptr), %15 ], [ inttoptr (i64 27 to ptr), %14 ], [ inttoptr (i64 25 to ptr), %13 ], [ inttoptr (i64 23 to ptr), %12 ], [ inttoptr (i64 21 to ptr), %11 ], [ inttoptr (i64 19 to ptr), %10 ], [ inttoptr (i64 17 to ptr), %9 ], [ inttoptr (i64 15 to ptr), %8 ], [ inttoptr (i64 13 to ptr), %7 ], [ inttoptr (i64 11 to ptr), %6 ], [ inttoptr (i64 9 to ptr), %5 ], [ inttoptr (i64 7 to ptr), %4 ], [ inttoptr (i64 5 to ptr), %3 ], [ inttoptr (i64 3 to ptr), %2 ], [ inttoptr (i64 1 to ptr), %1 ]
  ret ptr %.0
}